target datalayout = "e-m:e-p270:32:32-p271:32:32-p272:64:64-i64:64-i128:128-f80:128-n8:16:32:64-S128"
target triple = "x86_64-pc-linux-gnu"

@.str = private unnamed_addr constant [31 x i8] c"\22%s\22 must be a multiple of %d.\00", align 1
@GUC_check_errdetail_string = external global ptr, align 8

; Function Attrs: nounwind uwtable
define dso_local zeroext i1 @check_slru_buffers(ptr noundef %0, ptr noundef %1) #0 {
  %3 = alloca i1, align 1
  %4 = alloca ptr, align 8
  %5 = alloca ptr, align 8
  store ptr %0, ptr %4, align 8
  store ptr %1, ptr %5, align 8
  %6 = load ptr, ptr %5, align 8
  %7 = load i32, ptr %6, align 4
  %8 = srem i32 %7, 16
  %9 = icmp eq i32 %8, 0
  br i1 %9, label %10, label %11

10:                                               ; preds = %2
  store i1 true, ptr %3, align 1
  br label %16

11:                                               ; preds = %2
  %12 = call ptr @__errno_location() #10
  %13 = load i32, ptr %12, align 4
  call void @pre_format_elog_string(i32 noundef %13, ptr noundef null)
  %14 = load ptr, ptr %4, align 8
  %15 = call ptr (ptr, ...) @format_elog_string(ptr noundef @.str, ptr noundef %14, i32 noundef 16)
  store ptr %15, ptr @GUC_check_errdetail_string, align 8
  store i1 false, ptr %3, align 1
  br label %16

16:                                               ; preds = %11, %10
  %17 = load i1, ptr %3, align 1
  ret i1 %17
}