; Function Attrs: nounwind uwtable
define dso_local noundef zeroext i1 @check_slru_buffers(ptr noundef %0, ptr noundef readonly captures(none) %1) local_unnamed_addr #3 {
  %3 = load i32, ptr %1, align 4
  %4 = and i32 %3, 15
  %5 = icmp eq i32 %4, 0
  br i1 %5, label %10, label %6

6:                                                ; preds = %2
  %7 = tail call ptr @__errno_location() #16
  %8 = load i32, ptr %7, align 4
  tail call void @pre_format_elog_string(i32 noundef %8, ptr noundef null) #15
  %9 = tail call ptr (ptr, ...) @format_elog_string(ptr noundef nonnull @.str, ptr noundef %0, i32 noundef 16) #15
  store ptr %9, ptr @GUC_check_errdetail_string, align 8
  br label %10

10:                                               ; preds = %2, %6
  ret i1 %5
}